; Function Attrs: mustprogress nofree norecurse nosync nounwind willreturn memory(argmem: read) uwtable
define dso_local { <2 x float>, <2 x float> } @_ZN18btSliderConstraint11getAncorInBEv(ptr nocapture noundef nonnull readonly align 8 dereferenceable(1152) %this) local_unnamed_addr #10 align 2 {
entry:
  %m_origin.i = getelementptr inbounds i8, ptr %this, i64 188
  %retval.sroa.0.0.copyload = load <2 x float>, ptr %m_origin.i, align 4
  %retval.sroa.2.0.m_origin.i.sroa_idx = getelementptr inbounds i8, ptr %this, i64 196
  %retval.sroa.2.0.copyload = load <2 x float>, ptr %retval.sroa.2.0.m_origin.i.sroa_idx, align 4
  %.fca.0.insert = insertvalue { <2 x float>, <2 x float> } poison, <2 x float> %retval.sroa.0.0.copyload, 0
  %.fca.1.insert = insertvalue { <2 x float>, <2 x float> } %.fca.0.insert, <2 x float> %retval.sroa.2.0.copyload, 1
  ret { <2 x float>, <2 x float> } %.fca.1.insert
}